target datalayout = "e-m:e-p270:32:32-p271:32:32-p272:64:64-i64:64-i128:128-f80:128-n8:16:32:64-S128"
target triple = "x86_64-pc-linux-gnu"

%struct._value_string_ext = type { ptr, i32, i32, ptr, ptr }
%struct._address = type { i32, i32, ptr, ptr }
%struct.session_args = type { ptr, ptr, i32, %struct._address, i8 }

@gtpv2_cause_vals_ext = hidden global %struct._value_string_ext { ptr @_try_val_to_str_ext_init, i32 0, i32 132, ptr @gtpv2_cause_vals, ptr @.str }, align 8
@.str.14 = private unnamed_addr constant [8 x i8] c"Unknown\00", align 1
@hf_gtpv2_ie_len = internal global i32 0, align 4
@hf_gtpv2_instance = internal global i32 0, align 4
@hf_gtpv2_spare_half_octet = internal global i32 0, align 4
@hf_gtpv2_cause = internal global i32 0, align 4
@hf_gtpv2_cause_off_ie_t = internal global i32 0, align 4
@g_gtp_session = external global i8, align 1
@.str.1793 = private unnamed_addr constant [8 x i8] c"%s (%u)\00", align 1
@dissect_gtpv2_cause.oct6_flags = internal constant [5 x ptr] [ptr @hf_gtpv2_spare_b7_b3, ptr @hf_gtpv2_cause_pce, ptr @hf_gtpv2_cause_bce, ptr @hf_gtpv2_cause_cs, ptr null], align 16

; Function Attrs: null_pointer_is_valid sspstrong uwtable
define internal void @dissect_gtpv2_cause(ptr noundef %0, ptr noundef %1, ptr noundef %2, ptr noundef %3, i16 noundef zeroext %4, i8 noundef zeroext %5, i8 noundef zeroext %6, ptr noundef %7) #1 {
  %9 = alloca ptr, align 8
  %10 = alloca ptr, align 8
  %11 = alloca ptr, align 8
  %12 = alloca ptr, align 8
  %13 = alloca i16, align 2
  %14 = alloca i8, align 1
  %15 = alloca i8, align 1
  %16 = alloca ptr, align 8
  %17 = alloca i32, align 4
  %18 = alloca i8, align 1
  %19 = alloca i32, align 4
  store ptr %0, ptr %9, align 8
  store ptr %1, ptr %10, align 8
  store ptr %2, ptr %11, align 8
  store ptr %3, ptr %12, align 8
  store i16 %4, ptr %13, align 2
  store i8 %5, ptr %14, align 1
  store i8 %6, ptr %15, align 1
  store ptr %7, ptr %16, align 8
  call void @llvm.lifetime.start.p0(i64 4, ptr %17) #11
  store i32 0, ptr %17, align 4
  call void @llvm.lifetime.start.p0(i64 1, ptr %18) #11
  %20 = load ptr, ptr %9, align 8
  %21 = load i32, ptr %17, align 4
  %22 = call zeroext i8 @tvb_get_uint8(ptr noundef %20, i32 noundef %21)
  store i8 %22, ptr %18, align 1
  %23 = load i8, ptr @g_gtp_session, align 1, !range !6, !noundef !7
  %24 = trunc i8 %23 to i1
  br i1 %24, label %25, label %29

25:                                               ; preds = %8
  %26 = load i8, ptr %18, align 1
  %27 = load ptr, ptr %16, align 8
  %28 = getelementptr inbounds nuw %struct.session_args, ptr %27, i32 0, i32 4
  store i8 %26, ptr %28, align 8
  br label %29

29:                                               ; preds = %25, %8
  %30 = load ptr, ptr %11, align 8
  %31 = load i32, ptr @hf_gtpv2_cause, align 4
  %32 = load ptr, ptr %9, align 8
  %33 = load i32, ptr %17, align 4
  %34 = call ptr @proto_tree_add_item(ptr noundef %30, i32 noundef %31, ptr noundef %32, i32 noundef %33, i32 noundef 1, i32 noundef 0)
  %35 = load ptr, ptr %12, align 8
  %36 = load i8, ptr %18, align 1
  %37 = zext i8 %36 to i32
  %38 = call ptr @val_to_str_ext_const(i32 noundef %37, ptr noundef @gtpv2_cause_vals_ext, ptr noundef @.str.14)
  %39 = load i8, ptr %18, align 1
  %40 = zext i8 %39 to i32
  call void (ptr, ptr, ...) @proto_item_append_text(ptr noundef %35, ptr noundef @.str.1793, ptr noundef %38, i32 noundef %40)
  %41 = load i32, ptr %17, align 4
  %42 = add i32 %41, 1
  store i32 %42, ptr %17, align 4
  %43 = load ptr, ptr %11, align 8
  %44 = load ptr, ptr %9, align 8
  %45 = load i32, ptr %17, align 4
  call void @proto_tree_add_bitmask_list(ptr noundef %43, ptr noundef %44, i32 noundef %45, i32 noundef 1, ptr noundef @dissect_gtpv2_cause.oct6_flags, i32 noundef 0)
  %46 = load i32, ptr %17, align 4
  %47 = add i32 %46, 1
  store i32 %47, ptr %17, align 4
  %48 = load i16, ptr %13, align 2
  %49 = zext i16 %48 to i32
  %50 = icmp eq i32 %49, 2
  br i1 %50, label %51, label %52

51:                                               ; preds = %29
  store i32 1, ptr %19, align 4
  br label %78

52:                                               ; preds = %29
  %53 = load ptr, ptr %11, align 8
  %54 = load i32, ptr @hf_gtpv2_cause_off_ie_t, align 4
  %55 = load ptr, ptr %9, align 8
  %56 = load i32, ptr %17, align 4
  %57 = call ptr @proto_tree_add_item(ptr noundef %53, i32 noundef %54, ptr noundef %55, i32 noundef %56, i32 noundef 1, i32 noundef 0)
  %58 = load i32, ptr %17, align 4
  %59 = add i32 %58, 1
  store i32 %59, ptr %17, align 4
  %60 = load ptr, ptr %11, align 8
  %61 = load i32, ptr @hf_gtpv2_ie_len, align 4
  %62 = load ptr, ptr %9, align 8
  %63 = load i32, ptr %17, align 4
  %64 = call ptr @proto_tree_add_item(ptr noundef %60, i32 noundef %61, ptr noundef %62, i32 noundef %63, i32 noundef 2, i32 noundef 0)
  %65 = load i32, ptr %17, align 4
  %66 = add i32 %65, 2
  store i32 %66, ptr %17, align 4
  %67 = load ptr, ptr %11, align 8
  %68 = load i32, ptr @hf_gtpv2_spare_half_octet, align 4
  %69 = load ptr, ptr %9, align 8
  %70 = load i32, ptr %17, align 4
  %71 = shl i32 %70, 3
  %72 = call ptr @proto_tree_add_bits_item(ptr noundef %67, i32 noundef %68, ptr noundef %69, i32 noundef %71, i32 noundef 4, i32 noundef 0)
  %73 = load ptr, ptr %11, align 8
  %74 = load i32, ptr @hf_gtpv2_instance, align 4
  %75 = load ptr, ptr %9, align 8
  %76 = load i32, ptr %17, align 4
  %77 = call ptr @proto_tree_add_item(ptr noundef %73, i32 noundef %74, ptr noundef %75, i32 noundef %76, i32 noundef 1, i32 noundef 0)
  store i32 0, ptr %19, align 4
  br label %78

78:                                               ; preds = %52, %51
  call void @llvm.lifetime.end.p0(i64 1, ptr %18) #11
  call void @llvm.lifetime.end.p0(i64 4, ptr %17) #11
  %79 = load i32, ptr %19, align 4
  switch i32 %79, label %81 [
    i32 0, label %80
    i32 1, label %80
  ]

80:                                               ; preds = %78, %78
  ret void

81:                                               ; preds = %78
  unreachable
}