; Function Attrs: null_pointer_is_valid sspstrong uwtable
define internal void @dissect_gtpv2_cause(ptr noundef %0, ptr readnone captures(none) %1, ptr noundef %2, ptr noundef %3, i16 noundef zeroext %4, i8 zeroext %5, i8 zeroext %6, ptr noundef writeonly captures(none) %7) #1 {
  %9 = tail call zeroext i8 @tvb_get_uint8(ptr noundef %0, i32 noundef 0)
  %10 = load i8, ptr @g_gtp_session, align 1, !range !13, !noundef !14
  %11 = trunc nuw i8 %10 to i1
  br i1 %11, label %12, label %14

12:                                               ; preds = %8
  %13 = getelementptr inbounds nuw i8, ptr %7, i64 48
  store i8 %9, ptr %13, align 8
  br label %14

14:                                               ; preds = %12, %8
  %15 = load i32, ptr @hf_gtpv2_cause, align 4
  %16 = tail call ptr @proto_tree_add_item(ptr noundef %2, i32 noundef %15, ptr noundef %0, i32 noundef 0, i32 noundef 1, i32 noundef 0)
  %17 = zext i8 %9 to i32
  %18 = tail call ptr @val_to_str_ext_const(i32 noundef %17, ptr noundef nonnull @gtpv2_cause_vals_ext, ptr noundef nonnull @.str.14)
  tail call void (ptr, ptr, ...) @proto_item_append_text(ptr noundef %3, ptr noundef nonnull @.str.1793, ptr noundef %18, i32 noundef %17)
  tail call void @proto_tree_add_bitmask_list(ptr noundef %2, ptr noundef %0, i32 noundef 1, i32 noundef 1, ptr noundef nonnull @dissect_gtpv2_cause.oct6_flags, i32 noundef 0)
  %19 = icmp eq i16 %4, 2
  br i1 %19, label %29, label %20

20:                                               ; preds = %14
  %21 = load i32, ptr @hf_gtpv2_cause_off_ie_t, align 4
  %22 = tail call ptr @proto_tree_add_item(ptr noundef %2, i32 noundef %21, ptr noundef %0, i32 noundef 2, i32 noundef 1, i32 noundef 0)
  %23 = load i32, ptr @hf_gtpv2_ie_len, align 4
  %24 = tail call ptr @proto_tree_add_item(ptr noundef %2, i32 noundef %23, ptr noundef %0, i32 noundef 3, i32 noundef 2, i32 noundef 0)
  %25 = load i32, ptr @hf_gtpv2_spare_half_octet, align 4
  %26 = tail call ptr @proto_tree_add_bits_item(ptr noundef %2, i32 noundef %25, ptr noundef %0, i32 noundef 40, i32 noundef 4, i32 noundef 0)
  %27 = load i32, ptr @hf_gtpv2_instance, align 4
  %28 = tail call ptr @proto_tree_add_item(ptr noundef %2, i32 noundef %27, ptr noundef %0, i32 noundef 5, i32 noundef 1, i32 noundef 0)
  br label %29

29:                                               ; preds = %14, %20
  ret void
}